; Function Attrs: mustprogress nofree norecurse nosync nounwind sspstrong willreturn memory(argmem: readwrite) uwtable
define internal void @of_dpa_apply_actions(ptr noundef writeonly captures(none) initializes((144, 145), (146, 148)) %fc, ptr noundef readonly captures(none) %flow) #9 {
entry:
  %copy_to_cpu = getelementptr inbounds nuw i8, ptr %flow, i64 264
  %0 = load i8, ptr %copy_to_cpu, align 8
  %copy_to_cpu2 = getelementptr inbounds nuw i8, ptr %fc, i64 144
  store i8 %0, ptr %copy_to_cpu2, align 8
  %eth = getelementptr inbounds nuw i8, ptr %flow, i64 36
  %1 = load i16, ptr %eth, align 4
  %vlan_id5 = getelementptr inbounds nuw i8, ptr %fc, i64 146
  store i16 %1, ptr %vlan_id5, align 2
  ret void
}